target datalayout = "e-m:e-p270:32:32-p271:32:32-p272:64:64-i64:64-i128:128-f80:128-n8:16:32:64-S128"
target triple = "x86_64-pc-linux-gnu"

%"struct.cv::kinfu::Intr" = type { float, float, float, float }
%"class.cv::dynafu::NonRigidICP" = type { ptr, i32, ptr, %"struct.cv::kinfu::Intr" }

@_ZTVN2cv6dynafu11NonRigidICPE = linkonce_odr hidden unnamed_addr constant { [5 x ptr] } { [5 x ptr] [ptr null, ptr @_ZTIN2cv6dynafu11NonRigidICPE, ptr @__cxa_pure_virtual, ptr @_ZN2cv6dynafu11NonRigidICPD2Ev, ptr @_ZN2cv6dynafu11NonRigidICPD0Ev] }, comdat, align 8

; Function Attrs: mustprogress nounwind uwtable
define hidden void @_ZN2cv6dynafu11NonRigidICPC2ENS_5kinfu4IntrERKNS_3PtrINS0_10TSDFVolumeEEEi(ptr noundef nonnull align 8 dereferenceable(40) %0, <2 x float> %1, <2 x float> %2, ptr noundef nonnull align 8 dereferenceable(16) %3, i32 noundef %4) unnamed_addr #5 align 2 {
  %6 = alloca %"struct.cv::kinfu::Intr", align 4
  %7 = alloca ptr, align 8
  %8 = alloca ptr, align 8
  %9 = alloca i32, align 4
  %10 = getelementptr inbounds { <2 x float>, <2 x float> }, ptr %6, i32 0, i32 0
  store <2 x float> %1, ptr %10, align 4
  %11 = getelementptr inbounds { <2 x float>, <2 x float> }, ptr %6, i32 0, i32 1
  store <2 x float> %2, ptr %11, align 4
  store ptr %0, ptr %7, align 8
  store ptr %3, ptr %8, align 8
  store i32 %4, ptr %9, align 4
  %12 = load ptr, ptr %7, align 8
  store ptr getelementptr inbounds inrange(-16, 24) ({ [5 x ptr] }, ptr @_ZTVN2cv6dynafu11NonRigidICPE, i32 0, i32 0, i32 2), ptr %12, align 8
  %13 = getelementptr inbounds %"class.cv::dynafu::NonRigidICP", ptr %12, i32 0, i32 1
  %14 = load i32, ptr %9, align 4
  store i32 %14, ptr %13, align 8
  %15 = getelementptr inbounds %"class.cv::dynafu::NonRigidICP", ptr %12, i32 0, i32 2
  %16 = load ptr, ptr %8, align 8
  store ptr %16, ptr %15, align 8
  %17 = getelementptr inbounds %"class.cv::dynafu::NonRigidICP", ptr %12, i32 0, i32 3
  call void @llvm.memcpy.p0.p0.i64(ptr align 8 %17, ptr align 4 %6, i64 16, i1 false)
  ret void
}

; Function Attrs: mustprogress nounwind uwtable
define hidden void @_ZN2cv6dynafu7ICPImplC2ENS_5kinfu4IntrERKNS_3PtrINS0_10TSDFVolumeEEEi(ptr noundef nonnull align 8 dereferenceable(40) %0, <2 x float> %1, <2 x float> %2, ptr noundef nonnull align 8 dereferenceable(16) %3, i32 noundef %4) unnamed_addr #5 align 2 {
  %6 = alloca %"struct.cv::kinfu::Intr", align 4
  %7 = alloca ptr, align 8
  %8 = alloca ptr, align 8
  %9 = alloca i32, align 4
  %10 = alloca %"struct.cv::kinfu::Intr", align 4
  %11 = getelementptr inbounds { <2 x float>, <2 x float> }, ptr %6, i32 0, i32 0
  store <2 x float> %1, ptr %11, align 4
  %12 = getelementptr inbounds { <2 x float>, <2 x float> }, ptr %6, i32 0, i32 1
  store <2 x float> %2, ptr %12, align 4
  store ptr %0, ptr %7, align 8
  store ptr %3, ptr %8, align 8
  store i32 %4, ptr %9, align 4
  %13 = load ptr, ptr %7, align 8
  call void @llvm.memcpy.p0.p0.i64(ptr align 4 %10, ptr align 4 %6, i64 16, i1 false)
  %14 = load ptr, ptr %8, align 8
  %15 = load i32, ptr %9, align 4
  %16 = getelementptr inbounds { <2 x float>, <2 x float> }, ptr %10, i32 0, i32 0
  %17 = load <2 x float>, ptr %16, align 4
  %18 = getelementptr inbounds { <2 x float>, <2 x float> }, ptr %10, i32 0, i32 1
  %19 = load <2 x float>, ptr %18, align 4
  call void @_ZN2cv6dynafu11NonRigidICPC2ENS_5kinfu4IntrERKNS_3PtrINS0_10TSDFVolumeEEEi(ptr noundef nonnull align 8 dereferenceable(40) %13, <2 x float> %17, <2 x float> %19, ptr noundef nonnull align 8 dereferenceable(16) %14, i32 noundef %15)
  store ptr getelementptr inbounds inrange(-16, 24) ({ [5 x ptr] }, ptr @_ZTVN2cv6dynafu7ICPImplE, i32 0, i32 0, i32 2), ptr %13, align 8
  ret void
}