; Function Attrs: mustprogress nofree norecurse nosync nounwind willreturn memory(argmem: write) uwtable
define hidden void @_ZN2cv6dynafu7ICPImplC2ENS_5kinfu4IntrERKNS_3PtrINS0_10TSDFVolumeEEEi(ptr nocapture noundef nonnull writeonly align 8 dereferenceable(40) %0, <2 x float> %1, <2 x float> %2, ptr noundef nonnull align 8 dereferenceable(16) %3, i32 noundef %4) unnamed_addr #3 align 2 {
  %6 = getelementptr inbounds i8, ptr %0, i64 8
  store i32 %4, ptr %6, align 8
  %7 = getelementptr inbounds i8, ptr %0, i64 16
  store ptr %3, ptr %7, align 8
  %8 = getelementptr inbounds i8, ptr %0, i64 24
  store <2 x float> %1, ptr %8, align 8
  %.sroa.2.0..sroa_idx.i = getelementptr inbounds i8, ptr %0, i64 32
  store <2 x float> %2, ptr %.sroa.2.0..sroa_idx.i, align 8
  store ptr getelementptr inbounds inrange(-16, 24) (i8, ptr @_ZTVN2cv6dynafu7ICPImplE, i64 16), ptr %0, align 8
  ret void
}